target datalayout = "e-m:e-p270:32:32-p271:32:32-p272:64:64-i64:64-i128:128-f80:128-n8:16:32:64-S128"
target triple = "x86_64-pc-linux-gnu"

%struct.Ivy_Man_t_ = type { ptr, ptr, ptr, ptr, ptr, %struct.Ivy_Obj_t_, [8 x i32], i32, i32, ptr, i32, i32, i32, i32, ptr, i32, ptr, ptr, ptr, i32, ptr, ptr, ptr, i64, i64 }
%struct.Ivy_Obj_t_ = type { i32, i32, i32, i32, ptr, ptr, ptr, ptr, ptr, ptr, ptr, ptr }

; Function Attrs: nounwind uwtable
define internal ptr @Ivy_Regular(ptr noundef %0) #0 {
  %2 = alloca ptr, align 8
  store ptr %0, ptr %2, align 8
  %3 = load ptr, ptr %2, align 8
  %4 = ptrtoint ptr %3 to i64
  %5 = and i64 %4, -2
  %6 = inttoptr i64 %5 to ptr
  ret ptr %6
}

; Function Attrs: nounwind uwtable
define internal i32 @Ivy_ObjIsNode(ptr noundef %0) #0 {
  %2 = alloca ptr, align 8
  store ptr %0, ptr %2, align 8
  %3 = load ptr, ptr %2, align 8
  %4 = getelementptr inbounds %struct.Ivy_Obj_t_, ptr %3, i32 0, i32 2
  %5 = load i32, ptr %4, align 8
  %6 = and i32 %5, 15
  %7 = icmp eq i32 %6, 5
  br i1 %7, label %14, label %8

8:                                                ; preds = %1
  %9 = load ptr, ptr %2, align 8
  %10 = getelementptr inbounds %struct.Ivy_Obj_t_, ptr %9, i32 0, i32 2
  %11 = load i32, ptr %10, align 8
  %12 = and i32 %11, 15
  %13 = icmp eq i32 %12, 6
  br label %14

14:                                               ; preds = %8, %1
  %15 = phi i1 [ true, %1 ], [ %13, %8 ]
  %16 = zext i1 %15 to i32
  ret i32 %16
}

; Function Attrs: nounwind uwtable
define internal ptr @Ivy_ObjFanin1(ptr noundef %0) #0 {
  %2 = alloca ptr, align 8
  store ptr %0, ptr %2, align 8
  %3 = load ptr, ptr %2, align 8
  %4 = getelementptr inbounds %struct.Ivy_Obj_t_, ptr %3, i32 0, i32 5
  %5 = load ptr, ptr %4, align 8
  %6 = call ptr @Ivy_Regular(ptr noundef %5)
  ret ptr %6
}

; Function Attrs: nounwind uwtable
define internal ptr @Ivy_ObjFanin0(ptr noundef %0) #0 {
  %2 = alloca ptr, align 8
  store ptr %0, ptr %2, align 8
  %3 = load ptr, ptr %2, align 8
  %4 = getelementptr inbounds %struct.Ivy_Obj_t_, ptr %3, i32 0, i32 4
  %5 = load ptr, ptr %4, align 8
  %6 = call ptr @Ivy_Regular(ptr noundef %5)
  ret ptr %6
}

; Function Attrs: nounwind uwtable
define internal i32 @Ivy_ObjIsPi(ptr noundef %0) #0 {
  %2 = alloca ptr, align 8
  store ptr %0, ptr %2, align 8
  %3 = load ptr, ptr %2, align 8
  %4 = getelementptr inbounds %struct.Ivy_Obj_t_, ptr %3, i32 0, i32 2
  %5 = load i32, ptr %4, align 8
  %6 = and i32 %5, 15
  %7 = icmp eq i32 %6, 1
  %8 = zext i1 %7 to i32
  ret i32 %8
}

; Function Attrs: nounwind uwtable
define internal void @Ivy_ObjSetTravIdCurrent(ptr noundef %0, ptr noundef %1) #0 {
  %3 = alloca ptr, align 8
  %4 = alloca ptr, align 8
  store ptr %0, ptr %3, align 8
  store ptr %1, ptr %4, align 8
  %5 = load ptr, ptr %3, align 8
  %6 = getelementptr inbounds %struct.Ivy_Man_t_, ptr %5, i32 0, i32 12
  %7 = load i32, ptr %6, align 8
  %8 = load ptr, ptr %4, align 8
  %9 = getelementptr inbounds %struct.Ivy_Obj_t_, ptr %8, i32 0, i32 1
  store i32 %7, ptr %9, align 4
  ret void
}

; Function Attrs: nounwind uwtable
define i32 @Ivy_ObjRefDeref(ptr noundef %0, ptr noundef %1, i32 noundef %2, i32 noundef %3) #0 {
  %5 = alloca i32, align 4
  %6 = alloca ptr, align 8
  %7 = alloca ptr, align 8
  %8 = alloca i32, align 4
  %9 = alloca i32, align 4
  %10 = alloca ptr, align 8
  %11 = alloca ptr, align 8
  %12 = alloca i32, align 4
  store ptr %0, ptr %6, align 8
  store ptr %1, ptr %7, align 8
  store i32 %2, ptr %8, align 4
  store i32 %3, ptr %9, align 4
  %13 = load i32, ptr %9, align 4
  %14 = icmp ne i32 %13, 0
  br i1 %14, label %15, label %18

15:                                               ; preds = %4
  %16 = load ptr, ptr %6, align 8
  %17 = load ptr, ptr %7, align 8
  call void @Ivy_ObjSetTravIdCurrent(ptr noundef %16, ptr noundef %17)
  br label %18

18:                                               ; preds = %15, %4
  %19 = load ptr, ptr %7, align 8
  %20 = call i32 @Ivy_ObjIsPi(ptr noundef %19)
  %21 = icmp ne i32 %20, 0
  br i1 %21, label %22, label %23

22:                                               ; preds = %18
  store i32 0, ptr %5, align 4
  br label %98

23:                                               ; preds = %18
  %24 = load ptr, ptr %7, align 8
  %25 = call ptr @Ivy_ObjFanin0(ptr noundef %24)
  store ptr %25, ptr %10, align 8
  %26 = load ptr, ptr %7, align 8
  %27 = call ptr @Ivy_ObjFanin1(ptr noundef %26)
  store ptr %27, ptr %11, align 8
  %28 = load ptr, ptr %7, align 8
  %29 = call i32 @Ivy_ObjIsNode(ptr noundef %28)
  store i32 %29, ptr %12, align 4
  %30 = load i32, ptr %8, align 4
  %31 = icmp ne i32 %30, 0
  br i1 %31, label %32, label %64

32:                                               ; preds = %23
  %33 = load ptr, ptr %10, align 8
  %34 = getelementptr inbounds %struct.Ivy_Obj_t_, ptr %33, i32 0, i32 3
  %35 = load i32, ptr %34, align 4
  %36 = add nsw i32 %35, 1
  store i32 %36, ptr %34, align 4
  %37 = icmp eq i32 %35, 0
  br i1 %37, label %38, label %46

38:                                               ; preds = %32
  %39 = load ptr, ptr %6, align 8
  %40 = load ptr, ptr %10, align 8
  %41 = load i32, ptr %8, align 4
  %42 = load i32, ptr %9, align 4
  %43 = call i32 @Ivy_ObjRefDeref(ptr noundef %39, ptr noundef %40, i32 noundef %41, i32 noundef %42)
  %44 = load i32, ptr %12, align 4
  %45 = add nsw i32 %44, %43
  store i32 %45, ptr %12, align 4
  br label %46

46:                                               ; preds = %38, %32
  %47 = load ptr, ptr %11, align 8
  %48 = icmp ne ptr %47, null
  br i1 %48, label %49, label %63

49:                                               ; preds = %46
  %50 = load ptr, ptr %11, align 8
  %51 = getelementptr inbounds %struct.Ivy_Obj_t_, ptr %50, i32 0, i32 3
  %52 = load i32, ptr %51, align 4
  %53 = add nsw i32 %52, 1
  store i32 %53, ptr %51, align 4
  %54 = icmp eq i32 %52, 0
  br i1 %54, label %55, label %63

55:                                               ; preds = %49
  %56 = load ptr, ptr %6, align 8
  %57 = load ptr, ptr %11, align 8
  %58 = load i32, ptr %8, align 4
  %59 = load i32, ptr %9, align 4
  %60 = call i32 @Ivy_ObjRefDeref(ptr noundef %56, ptr noundef %57, i32 noundef %58, i32 noundef %59)
  %61 = load i32, ptr %12, align 4
  %62 = add nsw i32 %61, %60
  store i32 %62, ptr %12, align 4
  br label %63

63:                                               ; preds = %55, %49, %46
  br label %96

64:                                               ; preds = %23
  %65 = load ptr, ptr %10, align 8
  %66 = getelementptr inbounds %struct.Ivy_Obj_t_, ptr %65, i32 0, i32 3
  %67 = load i32, ptr %66, align 4
  %68 = add nsw i32 %67, -1
  store i32 %68, ptr %66, align 4
  %69 = icmp eq i32 %68, 0
  br i1 %69, label %70, label %78

70:                                               ; preds = %64
  %71 = load ptr, ptr %6, align 8
  %72 = load ptr, ptr %10, align 8
  %73 = load i32, ptr %8, align 4
  %74 = load i32, ptr %9, align 4
  %75 = call i32 @Ivy_ObjRefDeref(ptr noundef %71, ptr noundef %72, i32 noundef %73, i32 noundef %74)
  %76 = load i32, ptr %12, align 4
  %77 = add nsw i32 %76, %75
  store i32 %77, ptr %12, align 4
  br label %78

78:                                               ; preds = %70, %64
  %79 = load ptr, ptr %11, align 8
  %80 = icmp ne ptr %79, null
  br i1 %80, label %81, label %95

81:                                               ; preds = %78
  %82 = load ptr, ptr %11, align 8
  %83 = getelementptr inbounds %struct.Ivy_Obj_t_, ptr %82, i32 0, i32 3
  %84 = load i32, ptr %83, align 4
  %85 = add nsw i32 %84, -1
  store i32 %85, ptr %83, align 4
  %86 = icmp eq i32 %85, 0
  br i1 %86, label %87, label %95

87:                                               ; preds = %81
  %88 = load ptr, ptr %6, align 8
  %89 = load ptr, ptr %11, align 8
  %90 = load i32, ptr %8, align 4
  %91 = load i32, ptr %9, align 4
  %92 = call i32 @Ivy_ObjRefDeref(ptr noundef %88, ptr noundef %89, i32 noundef %90, i32 noundef %91)
  %93 = load i32, ptr %12, align 4
  %94 = add nsw i32 %93, %92
  store i32 %94, ptr %12, align 4
  br label %95

95:                                               ; preds = %87, %81, %78
  br label %96

96:                                               ; preds = %95, %63
  %97 = load i32, ptr %12, align 4
  store i32 %97, ptr %5, align 4
  br label %98

98:                                               ; preds = %96, %22
  %99 = load i32, ptr %5, align 4
  ret i32 %99
}