; Function Attrs: nofree nosync nounwind memory(readwrite, inaccessiblemem: none) uwtable
define i32 @Ivy_ObjRefDeref(ptr noundef %0, ptr noundef captures(none) %1, i32 noundef %2, i32 noundef %3) local_unnamed_addr #5 {
  br label %tailrecurse113

tailrecurse113:                                   ; preds = %94, %4
  %accumulator.tr = phi i32 [ 0, %4 ], [ %accumulator.ret.tr, %94 ]
  %.tr114 = phi ptr [ %1, %4 ], [ %18, %94 ]
  %.tr115 = phi i32 [ %2, %4 ], [ 0, %94 ]
  %.not = icmp eq i32 %3, 0
  %5 = getelementptr i8, ptr %0, i64 176
  %.not41 = icmp eq i32 %.tr115, 0
  br i1 %.not41, label %tailrecurse.us, label %.split

tailrecurse.us:                                   ; preds = %tailrecurse113
  br i1 %.not, label %8, label %6

6:                                                ; preds = %tailrecurse.us
  %.val45.us = load i32, ptr %5, align 8
  %7 = getelementptr inbounds nuw i8, ptr %.tr114, i64 4
  store i32 %.val45.us, ptr %7, align 4
  br label %8

8:                                                ; preds = %6, %tailrecurse.us
  %9 = getelementptr i8, ptr %.tr114, i64 8
  %.val46.us = load i32, ptr %9, align 8
  %10 = and i32 %.val46.us, 15
  %.not48.us = icmp eq i32 %10, 1
  br i1 %.not48.us, label %.loopexit, label %.split60.us

.split60.us:                                      ; preds = %8
  %11 = getelementptr i8, ptr %.tr114, i64 16
  %.val.us = load ptr, ptr %11, align 8
  %12 = ptrtoint ptr %.val.us to i64
  %13 = and i64 %12, -2
  %14 = inttoptr i64 %13 to ptr
  %15 = getelementptr i8, ptr %.tr114, i64 24
  %.val44.us = load ptr, ptr %15, align 8
  %16 = ptrtoint ptr %.val44.us to i64
  %17 = and i64 %16, -2
  %18 = inttoptr i64 %17 to ptr
  %19 = add nsw i32 %10, -5
  %narrow.i.us = icmp ult i32 %19, 2
  %20 = zext i1 %narrow.i.us to i32
  %21 = getelementptr inbounds nuw i8, ptr %14, i64 12
  %22 = load i32, ptr %21, align 4
  %23 = add nsw i32 %22, -1
  store i32 %23, ptr %21, align 4
  %24 = icmp eq i32 %23, 0
  br i1 %24, label %85, label %88

.split:                                           ; preds = %tailrecurse113
  br i1 %.not, label %.split.split.us, label %.split.split

.split.split.us:                                  ; preds = %.split
  %25 = getelementptr i8, ptr %.tr114, i64 8
  %.val46.us6989 = load i32, ptr %25, align 8
  %26 = and i32 %.val46.us6989, 15
  %.not48.us7090 = icmp eq i32 %26, 1
  br i1 %.not48.us7090, label %.loopexit, label %.lr.ph93

.lr.ph93:                                         ; preds = %.split.split.us, %tailrecurse.us66
  %27 = phi i32 [ %53, %tailrecurse.us66 ], [ %26, %.split.split.us ]
  %.tr49.us6892 = phi ptr [ %35, %tailrecurse.us66 ], [ %.tr114, %.split.split.us ]
  %accumulator.tr.us6791 = phi i32 [ %51, %tailrecurse.us66 ], [ 0, %.split.split.us ]
  %28 = getelementptr i8, ptr %.tr49.us6892, i64 16
  %.val.us71 = load ptr, ptr %28, align 8
  %29 = ptrtoint ptr %.val.us71 to i64
  %30 = and i64 %29, -2
  %31 = inttoptr i64 %30 to ptr
  %32 = getelementptr i8, ptr %.tr49.us6892, i64 24
  %.val44.us72 = load ptr, ptr %32, align 8
  %33 = ptrtoint ptr %.val44.us72 to i64
  %34 = and i64 %33, -2
  %35 = inttoptr i64 %34 to ptr
  %36 = add nsw i32 %27, -5
  %narrow.i.us73 = icmp ult i32 %36, 2
  %37 = zext i1 %narrow.i.us73 to i32
  %38 = getelementptr inbounds nuw i8, ptr %31, i64 12
  %39 = load i32, ptr %38, align 4
  %40 = add nsw i32 %39, 1
  store i32 %40, ptr %38, align 4
  %41 = icmp eq i32 %39, 0
  br i1 %41, label %42, label %45

42:                                               ; preds = %.lr.ph93
  %43 = tail call i32 @Ivy_ObjRefDeref(ptr noundef %0, ptr noundef nonnull %31, i32 noundef %.tr115, i32 noundef 0)
  %44 = add nsw i32 %43, %37
  br label %45

45:                                               ; preds = %42, %.lr.ph93
  %.0.us = phi i32 [ %44, %42 ], [ %37, %.lr.ph93 ]
  %.not43.us = icmp eq i64 %34, 0
  br i1 %.not43.us, label %.loopexit, label %46

46:                                               ; preds = %45
  %47 = getelementptr inbounds nuw i8, ptr %35, i64 12
  %48 = load i32, ptr %47, align 4
  %49 = add nsw i32 %48, 1
  store i32 %49, ptr %47, align 4
  %50 = icmp eq i32 %48, 0
  br i1 %50, label %tailrecurse.us66, label %.loopexit

tailrecurse.us66:                                 ; preds = %46
  %51 = add nsw i32 %.0.us, %accumulator.tr.us6791
  %52 = getelementptr i8, ptr %35, i64 8
  %.val46.us69 = load i32, ptr %52, align 8
  %53 = and i32 %.val46.us69, 15
  %.not48.us70 = icmp eq i32 %53, 1
  br i1 %.not48.us70, label %.loopexit, label %.lr.ph93

.split.split:                                     ; preds = %.split
  %.val4578 = load i32, ptr %5, align 8
  %54 = getelementptr inbounds nuw i8, ptr %.tr114, i64 4
  store i32 %.val4578, ptr %54, align 4
  %55 = getelementptr i8, ptr %.tr114, i64 8
  %.val4679 = load i32, ptr %55, align 8
  %56 = and i32 %.val4679, 15
  %.not4880 = icmp eq i32 %56, 1
  br i1 %.not4880, label %.loopexit, label %.lr.ph

.lr.ph:                                           ; preds = %.split.split, %tailrecurse
  %57 = phi i32 [ %84, %tailrecurse ], [ %56, %.split.split ]
  %.tr4982 = phi ptr [ %65, %tailrecurse ], [ %.tr114, %.split.split ]
  %accumulator.tr81 = phi i32 [ %81, %tailrecurse ], [ 0, %.split.split ]
  %58 = getelementptr i8, ptr %.tr4982, i64 16
  %.val = load ptr, ptr %58, align 8
  %59 = ptrtoint ptr %.val to i64
  %60 = and i64 %59, -2
  %61 = inttoptr i64 %60 to ptr
  %62 = getelementptr i8, ptr %.tr4982, i64 24
  %.val44 = load ptr, ptr %62, align 8
  %63 = ptrtoint ptr %.val44 to i64
  %64 = and i64 %63, -2
  %65 = inttoptr i64 %64 to ptr
  %66 = add nsw i32 %57, -5
  %narrow.i = icmp ult i32 %66, 2
  %67 = zext i1 %narrow.i to i32
  %68 = getelementptr inbounds nuw i8, ptr %61, i64 12
  %69 = load i32, ptr %68, align 4
  %70 = add nsw i32 %69, 1
  store i32 %70, ptr %68, align 4
  %71 = icmp eq i32 %69, 0
  br i1 %71, label %72, label %75

72:                                               ; preds = %.lr.ph
  %73 = tail call i32 @Ivy_ObjRefDeref(ptr noundef nonnull %0, ptr noundef nonnull %61, i32 noundef %.tr115, i32 noundef %3)
  %74 = add nsw i32 %73, %67
  br label %75

75:                                               ; preds = %72, %.lr.ph
  %.0 = phi i32 [ %74, %72 ], [ %67, %.lr.ph ]
  %.not43 = icmp eq i64 %64, 0
  br i1 %.not43, label %.loopexit, label %76

76:                                               ; preds = %75
  %77 = getelementptr inbounds nuw i8, ptr %65, i64 12
  %78 = load i32, ptr %77, align 4
  %79 = add nsw i32 %78, 1
  store i32 %79, ptr %77, align 4
  %80 = icmp eq i32 %78, 0
  br i1 %80, label %tailrecurse, label %.loopexit

tailrecurse:                                      ; preds = %76
  %81 = add nsw i32 %.0, %accumulator.tr81
  %.val45 = load i32, ptr %5, align 8
  %82 = getelementptr inbounds nuw i8, ptr %65, i64 4
  store i32 %.val45, ptr %82, align 4
  %83 = getelementptr i8, ptr %65, i64 8
  %.val46 = load i32, ptr %83, align 8
  %84 = and i32 %.val46, 15
  %.not48 = icmp eq i32 %84, 1
  br i1 %.not48, label %.loopexit, label %.lr.ph

85:                                               ; preds = %.split60.us
  %86 = tail call i32 @Ivy_ObjRefDeref(ptr noundef %0, ptr noundef nonnull %14, i32 noundef 0, i32 noundef %3)
  %87 = add nsw i32 %86, %20
  br label %88

88:                                               ; preds = %85, %.split60.us
  %.2 = phi i32 [ %87, %85 ], [ %20, %.split60.us ]
  %.not42 = icmp eq i64 %17, 0
  br i1 %.not42, label %.loopexit, label %89

89:                                               ; preds = %88
  %90 = getelementptr inbounds nuw i8, ptr %18, i64 12
  %91 = load i32, ptr %90, align 4
  %92 = add nsw i32 %91, -1
  store i32 %92, ptr %90, align 4
  %93 = icmp eq i32 %92, 0
  br i1 %93, label %94, label %.loopexit

94:                                               ; preds = %89
  %accumulator.ret.tr = add i32 %.2, %accumulator.tr
  br label %tailrecurse113

.loopexit:                                        ; preds = %tailrecurse, %75, %76, %46, %45, %tailrecurse.us66, %8, %.split.split, %.split.split.us, %89, %88
  %accumulator.tr57 = phi i32 [ 0, %89 ], [ 0, %88 ], [ 0, %8 ], [ 0, %.split.split.us ], [ 0, %.split.split ], [ %accumulator.tr.us6791, %46 ], [ %accumulator.tr.us6791, %45 ], [ %51, %tailrecurse.us66 ], [ %81, %tailrecurse ], [ %accumulator.tr81, %75 ], [ %accumulator.tr81, %76 ]
  %.035 = phi i32 [ %.2, %89 ], [ %.2, %88 ], [ 0, %8 ], [ 0, %.split.split.us ], [ 0, %.split.split ], [ %.0.us, %46 ], [ %.0.us, %45 ], [ 0, %tailrecurse.us66 ], [ 0, %tailrecurse ], [ %.0, %75 ], [ %.0, %76 ]
  %accumulator.ret.tr52 = add nsw i32 %.035, %accumulator.tr57
  %accumulator.ret.tr117 = add i32 %accumulator.ret.tr52, %accumulator.tr
  ret i32 %accumulator.ret.tr117
}